Certificate:
    Data:
        Version: 3 (0x2)
        Serial Number:
            b5:2d:3f:56:35:19:14:b9
    Signature Algorithm: sha256WithRSAEncryption
        Issuer: C=US, ST=North Carolina, L=Raleigh, O=Katello, OU=SomeOrgUnit, CN=fresv06.freygner.local
        Validity
            Not Before: May  6 20:03:36 2019 GMT
            Not After : Jan 17 20:03:36 2038 GMT
        Subject: C=US, ST=North Carolina, L=Raleigh, O=Katello, OU=SomeOrgUnit, CN=fresv06.freygner.local
        Subject Public Key Info:
            Public Key Algorithm: rsaEncryption
                Public-Key: (2048 bit)
                Modulus:
                    00:cc:1b:e9:16:6b:27:fe:9d:23:f8:3c:5f:b6:8e:
                    cb:21:54:e6:45:bd:60:f1:a9:16:3c:e1:99:0c:dd:
                    4a:fe:22:05:fd:3b:87:28:ec:51:7b:b1:b5:91:7b:
                    bc:92:b8:19:1a:7f:9e:21:87:d8:cf:d0:26:92:02:
                    56:7e:e5:df:ce:f1:99:47:fc:f6:81:fb:4f:e3:27:
                    0d:66:ea:be:d8:8d:2e:c9:81:40:ad:9d:db:dd:ef:
                    1c:53:5b:bc:40:82:3b:cd:ff:4f:e8:0f:c5:a0:f3:
                    9b:7c:5f:85:3c:18:46:19:5f:c1:95:b0:9d:8b:d9:
                    ad:08:06:be:f1:41:c6:20:2f:e2:9c:4a:32:94:21:
                    5b:73:86:4d:98:99:5d:86:36:14:df:e2:4f:b3:da:
                    35:36:8f:b3:93:a7:3b:e2:ff:cb:b3:06:db:59:7f:
                    89:1e:2f:a6:c3:aa:5d:7b:bb:57:80:9a:a5:d9:db:
                    93:47:44:1c:d9:a6:32:cd:09:9d:d5:97:d5:70:24:
                    5a:6b:41:78:d7:54:96:24:cf:cb:00:83:f1:48:44:
                    03:97:54:7b:0e:7f:c0:73:b8:80:51:dc:65:50:08:
                    6c:48:27:53:2d:17:45:7a:5f:dd:d8:4f:53:77:74:
                    e9:b8:6a:17:d8:dd:dc:66:77:4f:0a:75:2b:3c:ab:
                    2f:99
                Exponent: 65537 (0x10001)
        X509v3 extensions:
            X509v3 Basic Constraints: 
                CA:TRUE
            X509v3 Key Usage: 
                Digital Signature, Key Encipherment, Certificate Sign, CRL Sign
            X509v3 Extended Key Usage: 
                TLS Web Server Authentication, TLS Web Client Authentication
            Netscape Cert Type: 
                SSL Server, SSL CA
            Netscape Comment: 
                Katello SSL Tool Generated Certificate
            X509v3 Subject Key Identifier: 
                89:A6:BC:82:B1:9B:81:58:C8:2C:60:B5:CC:D2:98:60:72:A9:AE:D3
            X509v3 Authority Key Identifier: 
                keyid:89:A6:BC:82:B1:9B:81:58:C8:2C:60:B5:CC:D2:98:60:72:A9:AE:D3
                DirName:/C=US/ST=North Carolina/L=Raleigh/O=Katello/OU=SomeOrgUnit/CN=fresv06.freygner.local
                serial:B5:2D:3F:56:35:19:14:B9

    Signature Algorithm: sha256WithRSAEncryption
         41:eb:71:ec:a6:f5:31:f5:2e:ed:53:f4:de:e7:51:ec:af:ea:
         69:3b:43:f9:0b:06:95:ce:60:0b:46:ef:0d:0b:2e:f7:08:95:
         a7:e7:49:66:4e:65:90:75:93:2b:0e:2d:ca:73:75:6f:7b:af:
         65:f5:ec:ca:dd:38:82:d4:93:38:9a:56:47:18:4b:b9:5d:b7:
         51:26:83:50:b0:77:58:8e:15:ae:e6:5d:90:a2:d9:9c:00:3d:
         a9:36:2c:ca:0d:d2:7e:42:24:f3:b6:00:12:38:09:3d:84:97:
         68:a6:f0:c5:ec:c7:98:9b:58:cb:54:51:4b:f0:74:8a:0f:68:
         45:c5:49:70:c0:d5:02:fb:9b:e1:48:d2:7c:12:73:d3:a3:58:
         89:b5:eb:f4:58:ad:45:1c:87:5e:a1:f0:14:c1:ba:1a:ec:37:
         fb:82:48:91:dd:d6:ef:26:a7:54:ac:38:c0:8b:4c:d9:d2:88:
         cf:20:bd:b6:4c:6e:23:21:4e:8c:0f:47:2c:be:95:6f:b3:12:
         07:1a:8d:4e:54:0d:78:68:ed:66:e4:14:a6:33:f5:46:f2:d0:
         fe:35:fd:55:2d:85:8e:c7:03:99:3d:a2:ed:c5:07:27:3c:f6:
         93:a9:d5:30:48:3b:b5:d1:63:43:3a:64:bc:69:8c:7b:7b:d9:
         18:e3:9b:24
-----BEGIN CERTIFICATE-----
MIIE6TCCA9GgAwIBAgIJALUtP1Y1GRS5MA0GCSqGSIb3DQEBCwUAMIGBMQswCQYD
VQQGEwJVUzEXMBUGA1UECAwOTm9ydGggQ2Fyb2xpbmExEDAOBgNVBAcMB1JhbGVp
Z2gxEDAOBgNVBAoMB0thdGVsbG8xFDASBgNVBAsMC1NvbWVPcmdVbml0MR8wHQYD
VQQDDBZmcmVzdjA2LmZyZXlnbmVyLmxvY2FsMB4XDTE5MDUwNjIwMDMzNloXDTM4
MDExNzIwMDMzNlowgYExCzAJBgNVBAYTAlVTMRcwFQYDVQQIDA5Ob3J0aCBDYXJv
bGluYTEQMA4GA1UEBwwHUmFsZWlnaDEQMA4GA1UECgwHS2F0ZWxsbzEUMBIGA1UE
CwwLU29tZU9yZ1VuaXQxHzAdBgNVBAMMFmZyZXN2MDYuZnJleWduZXIubG9jYWww
ggEiMA0GCSqGSIb3DQEBAQUAA4IBDwAwggEKAoIBAQDMG+kWayf+nSP4PF+2jssh
VOZFvWDxqRY84ZkM3Ur+IgX9O4co7FF7sbWRe7ySuBkaf54hh9jP0CaSAlZ+5d/O
8ZlH/PaB+0/jJw1m6r7YjS7JgUCtndvd7xxTW7xAgjvN/0/oD8Wg85t8X4U8GEYZ
X8GVsJ2L2a0IBr7xQcYgL+KcSjKUIVtzhk2YmV2GNhTf4k+z2jU2j7OTpzvi/8uz
BttZf4keL6bDql17u1eAmqXZ25NHRBzZpjLNCZ3Vl9VwJFprQXjXVJYkz8sAg/FI
RAOXVHsOf8BzuIBR3GVQCGxIJ1MtF0V6X93YT1N3dOm4ahfY3dxmd08KdSs8qy+Z
AgMBAAGjggFgMIIBXDAMBgNVHRMEBTADAQH/MAsGA1UdDwQEAwIBpjAdBgNVHSUE
FjAUBggrBgEFBQcDAQYIKwYBBQUHAwIwEQYJYIZIAYb4QgEBBAQDAgJEMDUGCWCG
SAGG+EIBDQQoFiZLYXRlbGxvIFNTTCBUb29sIEdlbmVyYXRlZCBDZXJ0aWZpY2F0
ZTAdBgNVHQ4EFgQUiaa8grGbgVjILGC1zNKYYHKprtMwgbYGA1UdIwSBrjCBq4AU
iaa8grGbgVjILGC1zNKYYHKprtOhgYekgYQwgYExCzAJBgNVBAYTAlVTMRcwFQYD
VQQIDA5Ob3J0aCBDYXJvbGluYTEQMA4GA1UEBwwHUmFsZWlnaDEQMA4GA1UECgwH
S2F0ZWxsbzEUMBIGA1UECwwLU29tZU9yZ1VuaXQxHzAdBgNVBAMMFmZyZXN2MDYu
ZnJleWduZXIubG9jYWyCCQC1LT9WNRkUuTANBgkqhkiG9w0BAQsFAAOCAQEAQetx
7Kb1MfUu7VP03udR7K/qaTtD+QsGlc5gC0bvDQsu9wiVp+dJZk5lkHWTKw4tynN1
b3uvZfXsyt04gtSTOJpWRxhLuV23USaDULB3WI4VruZdkKLZnAA9qTYsyg3SfkIk
87YAEjgJPYSXaKbwxezHmJtYy1RRS/B0ig9oRcVJcMDVAvub4UjSfBJz06NYibXr
9FitRRyHXqHwFMG6Guw3+4JIkd3W7yanVKw4wItM2dKIzyC9tkxuIyFOjA9HLL6V
b7MSBxqNTlQNeGjtZuQUpjP1RvLQ/jX9VS2FjscDmT2i7cUHJzz2k6nVMEg7tdFj
QzpkvGmMe3vZGOObJA==
-----END CERTIFICATE-----
